; Function Attrs: mustprogress nounwind uwtable
define dso_local void @_ZN4llvm22SelectionDAGISelLegacyC2ERcSt10unique_ptrINS_16SelectionDAGISelESt14default_deleteIS3_EE(ptr noundef nonnull writeonly align 8 captures(none) dereferenceable(64) initializes((0, 28), (32, 64)) %0, ptr noundef nonnull align 1 dereferenceable(1) %1, ptr noundef captures(none) %2) unnamed_addr #0 align 2 {
  %4 = getelementptr inbounds nuw i8, ptr %0, i64 8
  store ptr null, ptr %4, align 8
  %5 = getelementptr inbounds nuw i8, ptr %0, i64 16
  store ptr %1, ptr %5, align 8
  %6 = getelementptr inbounds nuw i8, ptr %0, i64 24
  store i32 2, ptr %6, align 8
  %7 = getelementptr inbounds nuw i8, ptr %0, i64 32
  tail call void @llvm.memset.p0.i64(ptr noundef nonnull align 8 dereferenceable(24) %7, i8 0, i64 24, i1 false)
  store ptr getelementptr inbounds nuw inrange(-16, 176) (i8, ptr @_ZTVN4llvm22SelectionDAGISelLegacyE, i64 16), ptr %0, align 8
  %8 = getelementptr inbounds nuw i8, ptr %0, i64 56
  %9 = load i64, ptr %2, align 8
  store i64 %9, ptr %8, align 8
  store ptr null, ptr %2, align 8
  %10 = tail call noundef ptr @_ZN4llvm12PassRegistry15getPassRegistryEv() #29
  tail call void @_ZN4llvm26initializeGCModuleInfoPassERNS_12PassRegistryE(ptr noundef nonnull align 8 dereferenceable(160) %10) #29
  %11 = tail call noundef ptr @_ZN4llvm12PassRegistry15getPassRegistryEv() #29
  tail call void @_ZN4llvm46initializeBranchProbabilityInfoWrapperPassPassERNS_12PassRegistryE(ptr noundef nonnull align 8 dereferenceable(160) %11) #29
  %12 = tail call noundef ptr @_ZN4llvm12PassRegistry15getPassRegistryEv() #29
  tail call void @_ZN4llvm34initializeAAResultsWrapperPassPassERNS_12PassRegistryE(ptr noundef nonnull align 8 dereferenceable(160) %12) #29
  %13 = tail call noundef ptr @_ZN4llvm12PassRegistry15getPassRegistryEv() #29
  tail call void @_ZN4llvm42initializeTargetLibraryInfoWrapperPassPassERNS_12PassRegistryE(ptr noundef nonnull align 8 dereferenceable(160) %13) #29
  ret void
}